target datalayout = "e-m:e-p270:32:32-p271:32:32-p272:64:64-i64:64-i128:128-f80:128-n8:16:32:64-S128"
target triple = "x86_64-pc-linux-gnu"

%struct.anon.4 = type { i32, i32, i32, i32 }

@_shortcuts_dialog_posize = internal global %struct.anon.4 zeroinitializer, align 4
@.str.48 = private unnamed_addr constant [31 x i8] c"ui_last/shortcuts_dialog_width\00", align 1
@.str.49 = private unnamed_addr constant [32 x i8] c"ui_last/shortcuts_dialog_height\00", align 1

; Function Attrs: nounwind uwtable
define internal i32 @_resize_shortcuts_dialog(ptr noundef %0, ptr noundef %1, ptr noundef %2) #0 {
  %4 = alloca ptr, align 8
  %5 = alloca ptr, align 8
  %6 = alloca ptr, align 8
  store ptr %0, ptr %4, align 8, !tbaa !68
  store ptr %1, ptr %5, align 8, !tbaa !163
  store ptr %2, ptr %6, align 8, !tbaa !92
  %7 = load ptr, ptr %4, align 8, !tbaa !68
  %8 = call i64 @gtk_window_get_type() #11
  %9 = call ptr @g_type_check_instance_cast(ptr noundef %7, i64 noundef %8)
  call void @gtk_window_get_position(ptr noundef %9, ptr noundef @_shortcuts_dialog_posize, ptr noundef getelementptr inbounds nuw (%struct.anon.4, ptr @_shortcuts_dialog_posize, i32 0, i32 1))
  %10 = load ptr, ptr %4, align 8, !tbaa !68
  %11 = call i64 @gtk_window_get_type() #11
  %12 = call ptr @g_type_check_instance_cast(ptr noundef %10, i64 noundef %11)
  call void @gtk_window_get_size(ptr noundef %12, ptr noundef getelementptr inbounds nuw (%struct.anon.4, ptr @_shortcuts_dialog_posize, i32 0, i32 2), ptr noundef getelementptr inbounds nuw (%struct.anon.4, ptr @_shortcuts_dialog_posize, i32 0, i32 3))
  %13 = load i32, ptr getelementptr inbounds nuw (%struct.anon.4, ptr @_shortcuts_dialog_posize, i32 0, i32 2), align 4, !tbaa !181
  call void @dt_conf_set_int(ptr noundef @.str.48, i32 noundef %13)
  %14 = load i32, ptr getelementptr inbounds nuw (%struct.anon.4, ptr @_shortcuts_dialog_posize, i32 0, i32 3), align 4, !tbaa !186
  call void @dt_conf_set_int(ptr noundef @.str.49, i32 noundef %14)
  ret i32 0
}