; Function Attrs: nounwind uwtable
define internal noundef i32 @_resize_shortcuts_dialog(ptr noundef %0, ptr readnone captures(none) %1, ptr readnone captures(none) %2) #1 {
  %4 = tail call i64 @gtk_window_get_type() #12
  %5 = tail call ptr @g_type_check_instance_cast(ptr noundef %0, i64 noundef %4) #10
  tail call void @gtk_window_get_position(ptr noundef %5, ptr noundef nonnull @_shortcuts_dialog_posize, ptr noundef nonnull getelementptr inbounds nuw (i8, ptr @_shortcuts_dialog_posize, i64 4)) #10
  %6 = tail call ptr @g_type_check_instance_cast(ptr noundef %0, i64 noundef %4) #10
  tail call void @gtk_window_get_size(ptr noundef %6, ptr noundef nonnull getelementptr inbounds nuw (i8, ptr @_shortcuts_dialog_posize, i64 8), ptr noundef nonnull getelementptr inbounds nuw (i8, ptr @_shortcuts_dialog_posize, i64 12)) #10
  %7 = load i32, ptr getelementptr inbounds nuw (i8, ptr @_shortcuts_dialog_posize, i64 8), align 4, !tbaa !156
  tail call void @dt_conf_set_int(ptr noundef nonnull @.str.48, i32 noundef %7) #10
  %8 = load i32, ptr getelementptr inbounds nuw (i8, ptr @_shortcuts_dialog_posize, i64 12), align 4, !tbaa !161
  tail call void @dt_conf_set_int(ptr noundef nonnull @.str.49, i32 noundef %8) #10
  ret i32 0
}